target datalayout = "e-m:e-p270:32:32-p271:32:32-p272:64:64-i64:64-i128:128-f80:128-n8:16:32:64-S128"
target triple = "x86_64-pc-linux-gnu"

%struct._zval_struct = type { %union._zend_value, %union.anon, %union.anon.2 }
%union._zend_value = type { i64 }
%union.anon = type { i32 }
%union.anon.2 = type { i32 }
%struct._zend_refcounted_h = type { i32, %union.anon.3 }
%union.anon.3 = type { i32 }
%struct._zend_constant = type { %struct._zval_struct, ptr, ptr }
%struct.anon.0 = type { i8, i8, %union.anon.1 }
%union.anon.1 = type { i16 }
%struct._zend_string = type { %struct._zend_refcounted_h, i64, i64, [1 x i8] }
%struct._zend_refcounted = type { %struct._zend_refcounted_h }

; Function Attrs: alwaysinline nounwind uwtable
define internal i32 @zend_gc_delref(ptr noundef %0) #2 {
  %2 = alloca ptr, align 8
  store ptr %0, ptr %2, align 8, !tbaa !99
  %3 = load ptr, ptr %2, align 8, !tbaa !99
  %4 = getelementptr inbounds nuw %struct._zend_refcounted_h, ptr %3, i32 0, i32 0
  %5 = load i32, ptr %4, align 4, !tbaa !101
  %6 = icmp ugt i32 %5, 0
  call void @llvm.assume(i1 %6)
  br label %7

7:                                                ; preds = %1
  br label %8

8:                                                ; preds = %7
  %9 = load ptr, ptr %2, align 8, !tbaa !99
  %10 = getelementptr inbounds nuw %struct._zend_refcounted_h, ptr %9, i32 0, i32 0
  %11 = load i32, ptr %10, align 4, !tbaa !101
  %12 = add i32 %11, -1
  store i32 %12, ptr %10, align 4, !tbaa !101
  ret i32 %12
}

; Function Attrs: alwaysinline nounwind uwtable
define internal i32 @zval_gc_flags(i32 noundef %0) #2 {
  %2 = alloca i32, align 4
  store i32 %0, ptr %2, align 4, !tbaa !22
  %3 = load i32, ptr %2, align 4, !tbaa !22
  %4 = lshr i32 %3, 0
  %5 = and i32 %4, 1008
  ret i32 %5
}

; Function Attrs: alwaysinline nounwind uwtable
define internal i32 @zval_delref_p(ptr noundef %0) #2 {
  %2 = alloca ptr, align 8
  store ptr %0, ptr %2, align 8, !tbaa !4
  %3 = load ptr, ptr %2, align 8, !tbaa !4
  %4 = getelementptr inbounds nuw %struct._zval_struct, ptr %3, i32 0, i32 1
  %5 = getelementptr inbounds nuw %struct.anon.0, ptr %4, i32 0, i32 1
  %6 = load i8, ptr %5, align 1, !tbaa !9
  %7 = zext i8 %6 to i32
  %8 = icmp ne i32 %7, 0
  call void @llvm.assume(i1 %8)
  %9 = load ptr, ptr %2, align 8, !tbaa !4
  %10 = getelementptr inbounds nuw %struct._zval_struct, ptr %9, i32 0, i32 0
  %11 = load ptr, ptr %10, align 8, !tbaa !9
  %12 = getelementptr inbounds nuw %struct._zend_refcounted, ptr %11, i32 0, i32 0
  %13 = call i32 @zend_gc_delref(ptr noundef %12)
  ret i32 %13
}

; Function Attrs: alwaysinline nounwind uwtable
define internal void @zend_string_release_ex(ptr noundef %0, i1 noundef zeroext %1) #2 {
  %3 = alloca ptr, align 8
  %4 = alloca i8, align 1
  store ptr %0, ptr %3, align 8, !tbaa !17
  %5 = zext i1 %1 to i8
  store i8 %5, ptr %4, align 1, !tbaa !18
  %6 = load ptr, ptr %3, align 8, !tbaa !17
  %7 = getelementptr inbounds nuw %struct._zend_string, ptr %6, i32 0, i32 0
  %8 = getelementptr inbounds nuw %struct._zend_refcounted_h, ptr %7, i32 0, i32 1
  %9 = load i32, ptr %8, align 4, !tbaa !9
  %10 = call i32 @zval_gc_flags(i32 noundef %9)
  %11 = and i32 %10, 64
  %12 = icmp ne i32 %11, 0
  br i1 %12, label %27, label %13

13:                                               ; preds = %2
  %14 = load ptr, ptr %3, align 8, !tbaa !17
  %15 = getelementptr inbounds nuw %struct._zend_string, ptr %14, i32 0, i32 0
  %16 = call i32 @zend_gc_delref(ptr noundef %15)
  %17 = icmp eq i32 %16, 0
  br i1 %17, label %18, label %26

18:                                               ; preds = %13
  %19 = load i8, ptr %4, align 1, !tbaa !18, !range !20, !noundef !21
  %20 = trunc i8 %19 to i1
  br i1 %20, label %21, label %23

21:                                               ; preds = %18
  %22 = load ptr, ptr %3, align 8, !tbaa !17
  call void @free(ptr noundef %22) #12
  br label %25

23:                                               ; preds = %18
  %24 = load ptr, ptr %3, align 8, !tbaa !17
  call void @_efree(ptr noundef %24)
  br label %25

25:                                               ; preds = %23, %21
  br label %26

26:                                               ; preds = %25, %13
  br label %27

27:                                               ; preds = %26, %2
  ret void
}

; Function Attrs: alwaysinline nounwind uwtable
define internal void @zval_ptr_dtor_nogc(ptr noundef %0) #2 {
  %2 = alloca ptr, align 8
  store ptr %0, ptr %2, align 8, !tbaa !4
  %3 = load ptr, ptr %2, align 8, !tbaa !4
  %4 = getelementptr inbounds nuw %struct._zval_struct, ptr %3, i32 0, i32 1
  %5 = getelementptr inbounds nuw %struct.anon.0, ptr %4, i32 0, i32 1
  %6 = load i8, ptr %5, align 1, !tbaa !9
  %7 = zext i8 %6 to i32
  %8 = icmp ne i32 %7, 0
  br i1 %8, label %9, label %17

9:                                                ; preds = %1
  %10 = load ptr, ptr %2, align 8, !tbaa !4
  %11 = call i32 @zval_delref_p(ptr noundef %10)
  %12 = icmp ne i32 %11, 0
  br i1 %12, label %17, label %13

13:                                               ; preds = %9
  %14 = load ptr, ptr %2, align 8, !tbaa !4
  %15 = getelementptr inbounds nuw %struct._zval_struct, ptr %14, i32 0, i32 0
  %16 = load ptr, ptr %15, align 8, !tbaa !9
  call void @rc_dtor_func(ptr noundef %16)
  br label %17

17:                                               ; preds = %13, %9, %1
  ret void
}

; Function Attrs: nounwind uwtable
define hidden void @free_zend_constant(ptr noundef %0) #0 {
  %2 = alloca ptr, align 8
  %3 = alloca ptr, align 8
  store ptr %0, ptr %2, align 8, !tbaa !4
  call void @llvm.lifetime.start.p0(i64 8, ptr %3) #12
  %4 = load ptr, ptr %2, align 8, !tbaa !4
  %5 = getelementptr inbounds nuw %struct._zval_struct, ptr %4, i32 0, i32 0
  %6 = load ptr, ptr %5, align 8, !tbaa !9
  store ptr %6, ptr %3, align 8, !tbaa !10
  %7 = load ptr, ptr %3, align 8, !tbaa !10
  %8 = getelementptr inbounds nuw %struct._zend_constant, ptr %7, i32 0, i32 0
  %9 = getelementptr inbounds nuw %struct._zval_struct, ptr %8, i32 0, i32 2
  %10 = load i32, ptr %9, align 4, !tbaa !9
  %11 = and i32 %10, 255
  %12 = and i32 %11, 1
  %13 = icmp ne i32 %12, 0
  br i1 %13, label %36, label %14

14:                                               ; preds = %1
  %15 = load ptr, ptr %3, align 8, !tbaa !10
  %16 = getelementptr inbounds nuw %struct._zend_constant, ptr %15, i32 0, i32 0
  call void @zval_ptr_dtor_nogc(ptr noundef %16)
  %17 = load ptr, ptr %3, align 8, !tbaa !10
  %18 = getelementptr inbounds nuw %struct._zend_constant, ptr %17, i32 0, i32 1
  %19 = load ptr, ptr %18, align 8, !tbaa !12
  %20 = icmp ne ptr %19, null
  br i1 %20, label %21, label %25

21:                                               ; preds = %14
  %22 = load ptr, ptr %3, align 8, !tbaa !10
  %23 = getelementptr inbounds nuw %struct._zend_constant, ptr %22, i32 0, i32 1
  %24 = load ptr, ptr %23, align 8, !tbaa !12
  call void @zend_string_release_ex(ptr noundef %24, i1 noundef zeroext false)
  br label %25

25:                                               ; preds = %21, %14
  %26 = load ptr, ptr %3, align 8, !tbaa !10
  %27 = getelementptr inbounds nuw %struct._zend_constant, ptr %26, i32 0, i32 2
  %28 = load ptr, ptr %27, align 8, !tbaa !16
  %29 = icmp ne ptr %28, null
  br i1 %29, label %30, label %34

30:                                               ; preds = %25
  %31 = load ptr, ptr %3, align 8, !tbaa !10
  %32 = getelementptr inbounds nuw %struct._zend_constant, ptr %31, i32 0, i32 2
  %33 = load ptr, ptr %32, align 8, !tbaa !16
  call void @zend_string_release_ex(ptr noundef %33, i1 noundef zeroext false)
  br label %34

34:                                               ; preds = %30, %25
  %35 = load ptr, ptr %3, align 8, !tbaa !10
  call void @_efree(ptr noundef %35)
  br label %58

36:                                               ; preds = %1
  %37 = load ptr, ptr %3, align 8, !tbaa !10
  %38 = getelementptr inbounds nuw %struct._zend_constant, ptr %37, i32 0, i32 0
  call void @zval_internal_ptr_dtor(ptr noundef %38)
  %39 = load ptr, ptr %3, align 8, !tbaa !10
  %40 = getelementptr inbounds nuw %struct._zend_constant, ptr %39, i32 0, i32 1
  %41 = load ptr, ptr %40, align 8, !tbaa !12
  %42 = icmp ne ptr %41, null
  br i1 %42, label %43, label %47

43:                                               ; preds = %36
  %44 = load ptr, ptr %3, align 8, !tbaa !10
  %45 = getelementptr inbounds nuw %struct._zend_constant, ptr %44, i32 0, i32 1
  %46 = load ptr, ptr %45, align 8, !tbaa !12
  call void @zend_string_release_ex(ptr noundef %46, i1 noundef zeroext true)
  br label %47

47:                                               ; preds = %43, %36
  %48 = load ptr, ptr %3, align 8, !tbaa !10
  %49 = getelementptr inbounds nuw %struct._zend_constant, ptr %48, i32 0, i32 2
  %50 = load ptr, ptr %49, align 8, !tbaa !16
  %51 = icmp ne ptr %50, null
  br i1 %51, label %52, label %56

52:                                               ; preds = %47
  %53 = load ptr, ptr %3, align 8, !tbaa !10
  %54 = getelementptr inbounds nuw %struct._zend_constant, ptr %53, i32 0, i32 2
  %55 = load ptr, ptr %54, align 8, !tbaa !16
  call void @zend_string_release_ex(ptr noundef %55, i1 noundef zeroext true)
  br label %56

56:                                               ; preds = %52, %47
  %57 = load ptr, ptr %3, align 8, !tbaa !10
  call void @free(ptr noundef %57) #12
  br label %58

58:                                               ; preds = %56, %34
  call void @llvm.lifetime.end.p0(i64 8, ptr %3) #12
  ret void
}