; Function Attrs: nounwind uwtable
define hidden void @free_zend_constant(ptr noundef readonly captures(none) %0) #0 {
  %2 = load ptr, ptr %0, align 8, !tbaa !4
  %3 = getelementptr inbounds nuw i8, ptr %2, i64 12
  %4 = load i32, ptr %3, align 4, !tbaa !4
  %5 = and i32 %4, 1
  %.not = icmp eq i32 %5, 0
  br i1 %.not, label %6, label %40

6:                                                ; preds = %1
  %7 = getelementptr inbounds nuw i8, ptr %2, i64 9
  %8 = load i8, ptr %7, align 1, !tbaa !4
  %.not.i = icmp eq i8 %8, 0
  br i1 %.not.i, label %zval_ptr_dtor_nogc.exit, label %9

9:                                                ; preds = %6
  %10 = load ptr, ptr %2, align 8, !tbaa !4
  %11 = load i32, ptr %10, align 4, !tbaa !7
  %12 = icmp ne i32 %11, 0
  tail call void @llvm.assume(i1 %12)
  %13 = add i32 %11, -1
  store i32 %13, ptr %10, align 4, !tbaa !7
  %.not3.i = icmp eq i32 %13, 0
  br i1 %.not3.i, label %14, label %zval_ptr_dtor_nogc.exit

14:                                               ; preds = %9
  %15 = load ptr, ptr %2, align 8, !tbaa !4
  tail call void @rc_dtor_func(ptr noundef %15) #11
  br label %zval_ptr_dtor_nogc.exit

zval_ptr_dtor_nogc.exit:                          ; preds = %6, %9, %14
  %16 = getelementptr inbounds nuw i8, ptr %2, i64 16
  %17 = load ptr, ptr %16, align 8, !tbaa !10
  %.not17 = icmp eq ptr %17, null
  br i1 %.not17, label %zend_string_release_ex.exit, label %18

18:                                               ; preds = %zval_ptr_dtor_nogc.exit
  %19 = getelementptr inbounds nuw i8, ptr %17, i64 4
  %20 = load i32, ptr %19, align 4, !tbaa !4
  %21 = and i32 %20, 64
  %.not.i21 = icmp eq i32 %21, 0
  br i1 %.not.i21, label %22, label %zend_string_release_ex.exit

22:                                               ; preds = %18
  %23 = load i32, ptr %17, align 4, !tbaa !7
  %24 = icmp ne i32 %23, 0
  tail call void @llvm.assume(i1 %24)
  %25 = add i32 %23, -1
  store i32 %25, ptr %17, align 4, !tbaa !7
  %26 = icmp eq i32 %25, 0
  br i1 %26, label %27, label %zend_string_release_ex.exit

27:                                               ; preds = %22
  tail call void @_efree(ptr noundef nonnull %17) #11
  br label %zend_string_release_ex.exit

zend_string_release_ex.exit:                      ; preds = %27, %22, %18, %zval_ptr_dtor_nogc.exit
  %28 = getelementptr inbounds nuw i8, ptr %2, i64 24
  %29 = load ptr, ptr %28, align 8, !tbaa !15
  %.not18 = icmp eq ptr %29, null
  br i1 %.not18, label %zend_string_release_ex.exit23, label %30

30:                                               ; preds = %zend_string_release_ex.exit
  %31 = getelementptr inbounds nuw i8, ptr %29, i64 4
  %32 = load i32, ptr %31, align 4, !tbaa !4
  %33 = and i32 %32, 64
  %.not.i22 = icmp eq i32 %33, 0
  br i1 %.not.i22, label %34, label %zend_string_release_ex.exit23

34:                                               ; preds = %30
  %35 = load i32, ptr %29, align 4, !tbaa !7
  %36 = icmp ne i32 %35, 0
  tail call void @llvm.assume(i1 %36)
  %37 = add i32 %35, -1
  store i32 %37, ptr %29, align 4, !tbaa !7
  %38 = icmp eq i32 %37, 0
  br i1 %38, label %39, label %zend_string_release_ex.exit23

39:                                               ; preds = %34
  tail call void @_efree(ptr noundef nonnull %29) #11
  br label %zend_string_release_ex.exit23

zend_string_release_ex.exit23:                    ; preds = %39, %34, %30, %zend_string_release_ex.exit
  tail call void @_efree(ptr noundef nonnull %2) #11
  br label %65

40:                                               ; preds = %1
  tail call void @zval_internal_ptr_dtor(ptr noundef nonnull %2) #11
  %41 = getelementptr inbounds nuw i8, ptr %2, i64 16
  %42 = load ptr, ptr %41, align 8, !tbaa !10
  %.not19 = icmp eq ptr %42, null
  br i1 %.not19, label %zend_string_release_ex.exit25, label %43

43:                                               ; preds = %40
  %44 = getelementptr inbounds nuw i8, ptr %42, i64 4
  %45 = load i32, ptr %44, align 4, !tbaa !4
  %46 = and i32 %45, 64
  %.not.i24 = icmp eq i32 %46, 0
  br i1 %.not.i24, label %47, label %zend_string_release_ex.exit25

47:                                               ; preds = %43
  %48 = load i32, ptr %42, align 4, !tbaa !7
  %49 = icmp ne i32 %48, 0
  tail call void @llvm.assume(i1 %49)
  %50 = add i32 %48, -1
  store i32 %50, ptr %42, align 4, !tbaa !7
  %51 = icmp eq i32 %50, 0
  br i1 %51, label %52, label %zend_string_release_ex.exit25

52:                                               ; preds = %47
  tail call void @free(ptr noundef nonnull %42) #11
  br label %zend_string_release_ex.exit25

zend_string_release_ex.exit25:                    ; preds = %52, %47, %43, %40
  %53 = getelementptr inbounds nuw i8, ptr %2, i64 24
  %54 = load ptr, ptr %53, align 8, !tbaa !15
  %.not20 = icmp eq ptr %54, null
  br i1 %.not20, label %zend_string_release_ex.exit27, label %55

55:                                               ; preds = %zend_string_release_ex.exit25
  %56 = getelementptr inbounds nuw i8, ptr %54, i64 4
  %57 = load i32, ptr %56, align 4, !tbaa !4
  %58 = and i32 %57, 64
  %.not.i26 = icmp eq i32 %58, 0
  br i1 %.not.i26, label %59, label %zend_string_release_ex.exit27

59:                                               ; preds = %55
  %60 = load i32, ptr %54, align 4, !tbaa !7
  %61 = icmp ne i32 %60, 0
  tail call void @llvm.assume(i1 %61)
  %62 = add i32 %60, -1
  store i32 %62, ptr %54, align 4, !tbaa !7
  %63 = icmp eq i32 %62, 0
  br i1 %63, label %64, label %zend_string_release_ex.exit27

64:                                               ; preds = %59
  tail call void @free(ptr noundef nonnull %54) #11
  br label %zend_string_release_ex.exit27

zend_string_release_ex.exit27:                    ; preds = %64, %59, %55, %zend_string_release_ex.exit25
  tail call void @free(ptr noundef nonnull %2) #11
  br label %65

65:                                               ; preds = %zend_string_release_ex.exit27, %zend_string_release_ex.exit23
  ret void
}